; Function Attrs: mustprogress uwtable
define hidden void @_Z9ReadColorRN6Assimp12StreamReaderILb0ELb0EEER9aiColor4tIfE(ptr nocapture noundef nonnull align 8 dereferenceable(49) %stream, ptr nocapture noundef nonnull writeonly align 4 dereferenceable(16) %ambient) local_unnamed_addr #2 personality ptr @__gxx_personality_v0 {
entry:
  %mCurrent.i.i = getelementptr inbounds i8, ptr %stream, i64 24
  %0 = load ptr, ptr %mCurrent.i.i, align 8
  %add.ptr.i.i = getelementptr inbounds i8, ptr %0, i64 4
  %mLimit.i.i = getelementptr inbounds i8, ptr %stream, i64 40
  %1 = load ptr, ptr %mLimit.i.i, align 8
  %cmp.i.i = icmp ugt ptr %add.ptr.i.i, %1
  br i1 %cmp.i.i, label %if.then.i.i, label %_ZN6Assimp12StreamReaderILb0ELb0EErsIfEERS1_RT_.exit

if.then.i.i:                                      ; preds = %entry
  %exception.i.i = tail call ptr @__cxa_allocate_exception(i64 16) #20
  invoke void @_ZN17DeadlyImportErrorC2EPKc(ptr noundef nonnull align 8 dereferenceable(16) %exception.i.i, ptr noundef nonnull @.str.31)
          to label %invoke.cont.i.i unwind label %lpad.i.i

invoke.cont.i.i:                                  ; preds = %if.then.i.i
  tail call void @__cxa_throw(ptr nonnull %exception.i.i, ptr nonnull @_ZTI17DeadlyImportError, ptr nonnull @_ZN17DeadlyImportErrorD2Ev) #21
  unreachable

common.resume:                                    ; preds = %lpad.i.i28, %lpad.i.i19, %lpad.i.i10, %lpad.i.i
  %exception.i.i27.sink = phi ptr [ %exception.i.i27, %lpad.i.i28 ], [ %exception.i.i18, %lpad.i.i19 ], [ %exception.i.i9, %lpad.i.i10 ], [ %exception.i.i, %lpad.i.i ]
  %common.resume.op = phi { ptr, i32 } [ %14, %lpad.i.i28 ], [ %10, %lpad.i.i19 ], [ %6, %lpad.i.i10 ], [ %2, %lpad.i.i ]
  tail call void @__cxa_free_exception(ptr %exception.i.i27.sink) #20
  resume { ptr, i32 } %common.resume.op

lpad.i.i:                                         ; preds = %if.then.i.i
  %2 = landingpad { ptr, i32 }
          cleanup
  br label %common.resume

_ZN6Assimp12StreamReaderILb0ELb0EErsIfEERS1_RT_.exit: ; preds = %entry
  %3 = load float, ptr %0, align 1
  store ptr %add.ptr.i.i, ptr %mCurrent.i.i, align 8
  store float %3, ptr %ambient, align 4
  %4 = load ptr, ptr %mCurrent.i.i, align 8
  %add.ptr.i.i5 = getelementptr inbounds i8, ptr %4, i64 4
  %5 = load ptr, ptr %mLimit.i.i, align 8
  %cmp.i.i7 = icmp ugt ptr %add.ptr.i.i5, %5
  br i1 %cmp.i.i7, label %if.then.i.i8, label %_ZN6Assimp12StreamReaderILb0ELb0EErsIfEERS1_RT_.exit12

if.then.i.i8:                                     ; preds = %_ZN6Assimp12StreamReaderILb0ELb0EErsIfEERS1_RT_.exit
  %exception.i.i9 = tail call ptr @__cxa_allocate_exception(i64 16) #20
  invoke void @_ZN17DeadlyImportErrorC2EPKc(ptr noundef nonnull align 8 dereferenceable(16) %exception.i.i9, ptr noundef nonnull @.str.31)
          to label %invoke.cont.i.i11 unwind label %lpad.i.i10

invoke.cont.i.i11:                                ; preds = %if.then.i.i8
  tail call void @__cxa_throw(ptr nonnull %exception.i.i9, ptr nonnull @_ZTI17DeadlyImportError, ptr nonnull @_ZN17DeadlyImportErrorD2Ev) #21
  unreachable

lpad.i.i10:                                       ; preds = %if.then.i.i8
  %6 = landingpad { ptr, i32 }
          cleanup
  br label %common.resume

_ZN6Assimp12StreamReaderILb0ELb0EErsIfEERS1_RT_.exit12: ; preds = %_ZN6Assimp12StreamReaderILb0ELb0EErsIfEERS1_RT_.exit
  %g = getelementptr inbounds i8, ptr %ambient, i64 4
  %7 = load float, ptr %4, align 1
  store ptr %add.ptr.i.i5, ptr %mCurrent.i.i, align 8
  store float %7, ptr %g, align 4
  %8 = load ptr, ptr %mCurrent.i.i, align 8
  %add.ptr.i.i14 = getelementptr inbounds i8, ptr %8, i64 4
  %9 = load ptr, ptr %mLimit.i.i, align 8
  %cmp.i.i16 = icmp ugt ptr %add.ptr.i.i14, %9
  br i1 %cmp.i.i16, label %if.then.i.i17, label %_ZN6Assimp12StreamReaderILb0ELb0EErsIfEERS1_RT_.exit21

if.then.i.i17:                                    ; preds = %_ZN6Assimp12StreamReaderILb0ELb0EErsIfEERS1_RT_.exit12
  %exception.i.i18 = tail call ptr @__cxa_allocate_exception(i64 16) #20
  invoke void @_ZN17DeadlyImportErrorC2EPKc(ptr noundef nonnull align 8 dereferenceable(16) %exception.i.i18, ptr noundef nonnull @.str.31)
          to label %invoke.cont.i.i20 unwind label %lpad.i.i19

invoke.cont.i.i20:                                ; preds = %if.then.i.i17
  tail call void @__cxa_throw(ptr nonnull %exception.i.i18, ptr nonnull @_ZTI17DeadlyImportError, ptr nonnull @_ZN17DeadlyImportErrorD2Ev) #21
  unreachable

lpad.i.i19:                                       ; preds = %if.then.i.i17
  %10 = landingpad { ptr, i32 }
          cleanup
  br label %common.resume

_ZN6Assimp12StreamReaderILb0ELb0EErsIfEERS1_RT_.exit21: ; preds = %_ZN6Assimp12StreamReaderILb0ELb0EErsIfEERS1_RT_.exit12
  %b = getelementptr inbounds i8, ptr %ambient, i64 8
  %11 = load float, ptr %8, align 1
  store ptr %add.ptr.i.i14, ptr %mCurrent.i.i, align 8
  store float %11, ptr %b, align 4
  %12 = load ptr, ptr %mCurrent.i.i, align 8
  %add.ptr.i.i23 = getelementptr inbounds i8, ptr %12, i64 4
  %13 = load ptr, ptr %mLimit.i.i, align 8
  %cmp.i.i25 = icmp ugt ptr %add.ptr.i.i23, %13
  br i1 %cmp.i.i25, label %if.then.i.i26, label %_ZN6Assimp12StreamReaderILb0ELb0EErsIfEERS1_RT_.exit30

if.then.i.i26:                                    ; preds = %_ZN6Assimp12StreamReaderILb0ELb0EErsIfEERS1_RT_.exit21
  %exception.i.i27 = tail call ptr @__cxa_allocate_exception(i64 16) #20
  invoke void @_ZN17DeadlyImportErrorC2EPKc(ptr noundef nonnull align 8 dereferenceable(16) %exception.i.i27, ptr noundef nonnull @.str.31)
          to label %invoke.cont.i.i29 unwind label %lpad.i.i28

invoke.cont.i.i29:                                ; preds = %if.then.i.i26
  tail call void @__cxa_throw(ptr nonnull %exception.i.i27, ptr nonnull @_ZTI17DeadlyImportError, ptr nonnull @_ZN17DeadlyImportErrorD2Ev) #21
  unreachable

lpad.i.i28:                                       ; preds = %if.then.i.i26
  %14 = landingpad { ptr, i32 }
          cleanup
  br label %common.resume

_ZN6Assimp12StreamReaderILb0ELb0EErsIfEERS1_RT_.exit30: ; preds = %_ZN6Assimp12StreamReaderILb0ELb0EErsIfEERS1_RT_.exit21
  %a = getelementptr inbounds i8, ptr %ambient, i64 12
  %15 = load float, ptr %12, align 1
  store ptr %add.ptr.i.i23, ptr %mCurrent.i.i, align 8
  store float %15, ptr %a, align 4
  ret void
}